target datalayout = "e-m:e-p270:32:32-p271:32:32-p272:64:64-i64:64-i128:128-f80:128-n8:16:32:64-S128"
target triple = "x86_64-pc-linux-gnu"

%"struct.duckdb_zstd::algo_time_t" = type { i32, i32 }

; Function Attrs: mustprogress nounwind uwtable
define internal noundef i32 @_ZN11duckdb_zstdL11ERR_isErrorEm(i64 noundef %0) #3 {
  %2 = alloca i64, align 8
  store i64 %0, ptr %2, align 8, !tbaa !9
  %3 = load i64, ptr %2, align 8, !tbaa !9
  %4 = icmp ugt i64 %3, -120
  %5 = zext i1 %4 to i32
  ret i32 %5
}

; Function Attrs: mustprogress uwtable
define noundef i64 @_ZN11duckdb_zstd27HUF_decompress1X1_DCtx_wkspEPjPvmPKvmS1_mi(ptr noundef %0, ptr noundef %1, i64 noundef %2, ptr noundef %3, i64 noundef %4, ptr noundef %5, i64 noundef %6, i32 noundef %7) #0 {
  %9 = alloca i64, align 8
  %10 = alloca ptr, align 8
  %11 = alloca ptr, align 8
  %12 = alloca i64, align 8
  %13 = alloca ptr, align 8
  %14 = alloca i64, align 8
  %15 = alloca ptr, align 8
  %16 = alloca i64, align 8
  %17 = alloca i32, align 4
  %18 = alloca ptr, align 8
  %19 = alloca i64, align 8
  %20 = alloca i32, align 4
  store ptr %0, ptr %10, align 8, !tbaa !3
  store ptr %1, ptr %11, align 8, !tbaa !8
  store i64 %2, ptr %12, align 8, !tbaa !9
  store ptr %3, ptr %13, align 8, !tbaa !8
  store i64 %4, ptr %14, align 8, !tbaa !9
  store ptr %5, ptr %15, align 8, !tbaa !8
  store i64 %6, ptr %16, align 8, !tbaa !9
  store i32 %7, ptr %17, align 4, !tbaa !11
  call void @llvm.lifetime.start.p0(i64 8, ptr %18) #14
  %21 = load ptr, ptr %13, align 8, !tbaa !8
  store ptr %21, ptr %18, align 8, !tbaa !34
  call void @llvm.lifetime.start.p0(i64 8, ptr %19) #14
  %22 = load ptr, ptr %10, align 8, !tbaa !3
  %23 = load ptr, ptr %13, align 8, !tbaa !8
  %24 = load i64, ptr %14, align 8, !tbaa !9
  %25 = load ptr, ptr %15, align 8, !tbaa !8
  %26 = load i64, ptr %16, align 8, !tbaa !9
  %27 = load i32, ptr %17, align 4, !tbaa !11
  %28 = call noundef i64 @_ZN11duckdb_zstd21HUF_readDTableX1_wkspEPjPKvmPvmi(ptr noundef %22, ptr noundef %23, i64 noundef %24, ptr noundef %25, i64 noundef %26, i32 noundef %27)
  store i64 %28, ptr %19, align 8, !tbaa !9
  %29 = load i64, ptr %19, align 8, !tbaa !9
  %30 = call noundef i32 @_ZN11duckdb_zstdL11ERR_isErrorEm(i64 noundef %29)
  %31 = icmp ne i32 %30, 0
  br i1 %31, label %32, label %34

32:                                               ; preds = %8
  %33 = load i64, ptr %19, align 8, !tbaa !9
  store i64 %33, ptr %9, align 8
  store i32 1, ptr %20, align 4
  br label %53

34:                                               ; preds = %8
  %35 = load i64, ptr %19, align 8, !tbaa !9
  %36 = load i64, ptr %14, align 8, !tbaa !9
  %37 = icmp uge i64 %35, %36
  br i1 %37, label %38, label %39

38:                                               ; preds = %34
  store i64 -72, ptr %9, align 8
  store i32 1, ptr %20, align 4
  br label %53

39:                                               ; preds = %34
  %40 = load i64, ptr %19, align 8, !tbaa !9
  %41 = load ptr, ptr %18, align 8, !tbaa !34
  %42 = getelementptr inbounds nuw i8, ptr %41, i64 %40
  store ptr %42, ptr %18, align 8, !tbaa !34
  %43 = load i64, ptr %19, align 8, !tbaa !9
  %44 = load i64, ptr %14, align 8, !tbaa !9
  %45 = sub i64 %44, %43
  store i64 %45, ptr %14, align 8, !tbaa !9
  %46 = load ptr, ptr %11, align 8, !tbaa !8
  %47 = load i64, ptr %12, align 8, !tbaa !9
  %48 = load ptr, ptr %18, align 8, !tbaa !34
  %49 = load i64, ptr %14, align 8, !tbaa !9
  %50 = load ptr, ptr %10, align 8, !tbaa !3
  %51 = load i32, ptr %17, align 4, !tbaa !11
  %52 = call noundef i64 @_ZN11duckdb_zstdL38HUF_decompress1X1_usingDTable_internalEPvmPKvmPKji(ptr noundef %46, i64 noundef %47, ptr noundef %48, i64 noundef %49, ptr noundef %50, i32 noundef %51)
  store i64 %52, ptr %9, align 8
  store i32 1, ptr %20, align 4
  br label %53

53:                                               ; preds = %39, %38, %32
  call void @llvm.lifetime.end.p0(i64 8, ptr %19) #14
  call void @llvm.lifetime.end.p0(i64 8, ptr %18) #14
  %54 = load i64, ptr %9, align 8
  ret i64 %54
}

; Function Attrs: mustprogress uwtable
define noundef i64 @_ZN11duckdb_zstd27HUF_decompress1X2_DCtx_wkspEPjPvmPKvmS1_mi(ptr noundef %0, ptr noundef %1, i64 noundef %2, ptr noundef %3, i64 noundef %4, ptr noundef %5, i64 noundef %6, i32 noundef %7) #0 {
  %9 = alloca i64, align 8
  %10 = alloca ptr, align 8
  %11 = alloca ptr, align 8
  %12 = alloca i64, align 8
  %13 = alloca ptr, align 8
  %14 = alloca i64, align 8
  %15 = alloca ptr, align 8
  %16 = alloca i64, align 8
  %17 = alloca i32, align 4
  %18 = alloca ptr, align 8
  %19 = alloca i64, align 8
  %20 = alloca i32, align 4
  store ptr %0, ptr %10, align 8, !tbaa !3
  store ptr %1, ptr %11, align 8, !tbaa !8
  store i64 %2, ptr %12, align 8, !tbaa !9
  store ptr %3, ptr %13, align 8, !tbaa !8
  store i64 %4, ptr %14, align 8, !tbaa !9
  store ptr %5, ptr %15, align 8, !tbaa !8
  store i64 %6, ptr %16, align 8, !tbaa !9
  store i32 %7, ptr %17, align 4, !tbaa !11
  call void @llvm.lifetime.start.p0(i64 8, ptr %18) #14
  %21 = load ptr, ptr %13, align 8, !tbaa !8
  store ptr %21, ptr %18, align 8, !tbaa !34
  call void @llvm.lifetime.start.p0(i64 8, ptr %19) #14
  %22 = load ptr, ptr %10, align 8, !tbaa !3
  %23 = load ptr, ptr %13, align 8, !tbaa !8
  %24 = load i64, ptr %14, align 8, !tbaa !9
  %25 = load ptr, ptr %15, align 8, !tbaa !8
  %26 = load i64, ptr %16, align 8, !tbaa !9
  %27 = load i32, ptr %17, align 4, !tbaa !11
  %28 = call noundef i64 @_ZN11duckdb_zstd21HUF_readDTableX2_wkspEPjPKvmPvmi(ptr noundef %22, ptr noundef %23, i64 noundef %24, ptr noundef %25, i64 noundef %26, i32 noundef %27)
  store i64 %28, ptr %19, align 8, !tbaa !9
  %29 = load i64, ptr %19, align 8, !tbaa !9
  %30 = call noundef i32 @_ZN11duckdb_zstdL11ERR_isErrorEm(i64 noundef %29)
  %31 = icmp ne i32 %30, 0
  br i1 %31, label %32, label %34

32:                                               ; preds = %8
  %33 = load i64, ptr %19, align 8, !tbaa !9
  store i64 %33, ptr %9, align 8
  store i32 1, ptr %20, align 4
  br label %53

34:                                               ; preds = %8
  %35 = load i64, ptr %19, align 8, !tbaa !9
  %36 = load i64, ptr %14, align 8, !tbaa !9
  %37 = icmp uge i64 %35, %36
  br i1 %37, label %38, label %39

38:                                               ; preds = %34
  store i64 -72, ptr %9, align 8
  store i32 1, ptr %20, align 4
  br label %53

39:                                               ; preds = %34
  %40 = load i64, ptr %19, align 8, !tbaa !9
  %41 = load ptr, ptr %18, align 8, !tbaa !34
  %42 = getelementptr inbounds nuw i8, ptr %41, i64 %40
  store ptr %42, ptr %18, align 8, !tbaa !34
  %43 = load i64, ptr %19, align 8, !tbaa !9
  %44 = load i64, ptr %14, align 8, !tbaa !9
  %45 = sub i64 %44, %43
  store i64 %45, ptr %14, align 8, !tbaa !9
  %46 = load ptr, ptr %11, align 8, !tbaa !8
  %47 = load i64, ptr %12, align 8, !tbaa !9
  %48 = load ptr, ptr %18, align 8, !tbaa !34
  %49 = load i64, ptr %14, align 8, !tbaa !9
  %50 = load ptr, ptr %10, align 8, !tbaa !3
  %51 = load i32, ptr %17, align 4, !tbaa !11
  %52 = call noundef i64 @_ZN11duckdb_zstdL38HUF_decompress1X2_usingDTable_internalEPvmPKvmPKji(ptr noundef %46, i64 noundef %47, ptr noundef %48, i64 noundef %49, ptr noundef %50, i32 noundef %51)
  store i64 %52, ptr %9, align 8
  store i32 1, ptr %20, align 4
  br label %53

53:                                               ; preds = %39, %38, %32
  call void @llvm.lifetime.end.p0(i64 8, ptr %19) #14
  call void @llvm.lifetime.end.p0(i64 8, ptr %18) #14
  %54 = load i64, ptr %9, align 8
  ret i64 %54
}

; Function Attrs: mustprogress nounwind uwtable
define noundef i32 @_ZN11duckdb_zstd17HUF_selectDecoderEmm(i64 noundef %0, i64 noundef %1) #3 {
  %3 = alloca i64, align 8
  %4 = alloca i64, align 8
  %5 = alloca i32, align 4
  %6 = alloca i32, align 4
  %7 = alloca i32, align 4
  %8 = alloca i32, align 4
  store i64 %0, ptr %3, align 8, !tbaa !9
  store i64 %1, ptr %4, align 8, !tbaa !9
  call void @llvm.lifetime.start.p0(i64 4, ptr %5) #14
  %9 = load i64, ptr %4, align 8, !tbaa !9
  %10 = load i64, ptr %3, align 8, !tbaa !9
  %11 = icmp uge i64 %9, %10
  br i1 %11, label %12, label %13

12:                                               ; preds = %2
  br label %19

13:                                               ; preds = %2
  %14 = load i64, ptr %4, align 8, !tbaa !9
  %15 = mul i64 %14, 16
  %16 = load i64, ptr %3, align 8, !tbaa !9
  %17 = udiv i64 %15, %16
  %18 = trunc i64 %17 to i32
  br label %19

19:                                               ; preds = %13, %12
  %20 = phi i32 [ 15, %12 ], [ %18, %13 ]
  store i32 %20, ptr %5, align 4, !tbaa !11
  call void @llvm.lifetime.start.p0(i64 4, ptr %6) #14
  %21 = load i64, ptr %3, align 8, !tbaa !9
  %22 = lshr i64 %21, 8
  %23 = trunc i64 %22 to i32
  store i32 %23, ptr %6, align 4, !tbaa !11
  call void @llvm.lifetime.start.p0(i64 4, ptr %7) #14
  %24 = load i32, ptr %5, align 4, !tbaa !11
  %25 = zext i32 %24 to i64
  %26 = getelementptr inbounds nuw [16 x [2 x %"struct.duckdb_zstd::algo_time_t"]], ptr @_ZN11duckdb_zstdL8algoTimeE, i64 0, i64 %25
  %27 = getelementptr inbounds [2 x %"struct.duckdb_zstd::algo_time_t"], ptr %26, i64 0, i64 0
  %28 = getelementptr inbounds nuw %"struct.duckdb_zstd::algo_time_t", ptr %27, i32 0, i32 0
  %29 = load i32, ptr %28, align 16, !tbaa !49
  %30 = load i32, ptr %5, align 4, !tbaa !11
  %31 = zext i32 %30 to i64
  %32 = getelementptr inbounds nuw [16 x [2 x %"struct.duckdb_zstd::algo_time_t"]], ptr @_ZN11duckdb_zstdL8algoTimeE, i64 0, i64 %31
  %33 = getelementptr inbounds [2 x %"struct.duckdb_zstd::algo_time_t"], ptr %32, i64 0, i64 0
  %34 = getelementptr inbounds nuw %"struct.duckdb_zstd::algo_time_t", ptr %33, i32 0, i32 1
  %35 = load i32, ptr %34, align 4, !tbaa !51
  %36 = load i32, ptr %6, align 4, !tbaa !11
  %37 = mul i32 %35, %36
  %38 = add i32 %29, %37
  store i32 %38, ptr %7, align 4, !tbaa !11
  call void @llvm.lifetime.start.p0(i64 4, ptr %8) #14
  %39 = load i32, ptr %5, align 4, !tbaa !11
  %40 = zext i32 %39 to i64
  %41 = getelementptr inbounds nuw [16 x [2 x %"struct.duckdb_zstd::algo_time_t"]], ptr @_ZN11duckdb_zstdL8algoTimeE, i64 0, i64 %40
  %42 = getelementptr inbounds [2 x %"struct.duckdb_zstd::algo_time_t"], ptr %41, i64 0, i64 1
  %43 = getelementptr inbounds nuw %"struct.duckdb_zstd::algo_time_t", ptr %42, i32 0, i32 0
  %44 = load i32, ptr %43, align 8, !tbaa !49
  %45 = load i32, ptr %5, align 4, !tbaa !11
  %46 = zext i32 %45 to i64
  %47 = getelementptr inbounds nuw [16 x [2 x %"struct.duckdb_zstd::algo_time_t"]], ptr @_ZN11duckdb_zstdL8algoTimeE, i64 0, i64 %46
  %48 = getelementptr inbounds [2 x %"struct.duckdb_zstd::algo_time_t"], ptr %47, i64 0, i64 1
  %49 = getelementptr inbounds nuw %"struct.duckdb_zstd::algo_time_t", ptr %48, i32 0, i32 1
  %50 = load i32, ptr %49, align 4, !tbaa !51
  %51 = load i32, ptr %6, align 4, !tbaa !11
  %52 = mul i32 %50, %51
  %53 = add i32 %44, %52
  store i32 %53, ptr %8, align 4, !tbaa !11
  %54 = load i32, ptr %8, align 4, !tbaa !11
  %55 = lshr i32 %54, 5
  %56 = load i32, ptr %8, align 4, !tbaa !11
  %57 = add i32 %56, %55
  store i32 %57, ptr %8, align 4, !tbaa !11
  %58 = load i32, ptr %8, align 4, !tbaa !11
  %59 = load i32, ptr %7, align 4, !tbaa !11
  %60 = icmp ult i32 %58, %59
  %61 = zext i1 %60 to i32
  call void @llvm.lifetime.end.p0(i64 4, ptr %8) #14
  call void @llvm.lifetime.end.p0(i64 4, ptr %7) #14
  call void @llvm.lifetime.end.p0(i64 4, ptr %6) #14
  call void @llvm.lifetime.end.p0(i64 4, ptr %5) #14
  ret i32 %61
}

; Function Attrs: mustprogress uwtable
define noundef i64 @_ZN11duckdb_zstd26HUF_decompress1X_DCtx_wkspEPjPvmPKvmS1_mi(ptr noundef %0, ptr noundef %1, i64 noundef %2, ptr noundef %3, i64 noundef %4, ptr noundef %5, i64 noundef %6, i32 noundef %7) #0 {
  %9 = alloca i64, align 8
  %10 = alloca ptr, align 8
  %11 = alloca ptr, align 8
  %12 = alloca i64, align 8
  %13 = alloca ptr, align 8
  %14 = alloca i64, align 8
  %15 = alloca ptr, align 8
  %16 = alloca i64, align 8
  %17 = alloca i32, align 4
  %18 = alloca i32, align 4
  store ptr %0, ptr %10, align 8, !tbaa !3
  store ptr %1, ptr %11, align 8, !tbaa !8
  store i64 %2, ptr %12, align 8, !tbaa !9
  store ptr %3, ptr %13, align 8, !tbaa !8
  store i64 %4, ptr %14, align 8, !tbaa !9
  store ptr %5, ptr %15, align 8, !tbaa !8
  store i64 %6, ptr %16, align 8, !tbaa !9
  store i32 %7, ptr %17, align 4, !tbaa !11
  %19 = load i64, ptr %12, align 8, !tbaa !9
  %20 = icmp eq i64 %19, 0
  br i1 %20, label %21, label %22

21:                                               ; preds = %8
  store i64 -70, ptr %9, align 8
  br label %75

22:                                               ; preds = %8
  %23 = load i64, ptr %14, align 8, !tbaa !9
  %24 = load i64, ptr %12, align 8, !tbaa !9
  %25 = icmp ugt i64 %23, %24
  br i1 %25, label %26, label %27

26:                                               ; preds = %22
  store i64 -20, ptr %9, align 8
  br label %75

27:                                               ; preds = %22
  %28 = load i64, ptr %14, align 8, !tbaa !9
  %29 = load i64, ptr %12, align 8, !tbaa !9
  %30 = icmp eq i64 %28, %29
  br i1 %30, label %31, label %36

31:                                               ; preds = %27
  %32 = load ptr, ptr %11, align 8, !tbaa !8
  %33 = load ptr, ptr %13, align 8, !tbaa !8
  %34 = load i64, ptr %12, align 8, !tbaa !9
  call void @llvm.memcpy.p0.p0.i64(ptr align 1 %32, ptr align 1 %33, i64 %34, i1 false)
  %35 = load i64, ptr %12, align 8, !tbaa !9
  store i64 %35, ptr %9, align 8
  br label %75

36:                                               ; preds = %27
  %37 = load i64, ptr %14, align 8, !tbaa !9
  %38 = icmp eq i64 %37, 1
  br i1 %38, label %39, label %47

39:                                               ; preds = %36
  %40 = load ptr, ptr %11, align 8, !tbaa !8
  %41 = load ptr, ptr %13, align 8, !tbaa !8
  %42 = load i8, ptr %41, align 1, !tbaa !19
  %43 = zext i8 %42 to i32
  %44 = trunc i32 %43 to i8
  %45 = load i64, ptr %12, align 8, !tbaa !9
  call void @llvm.memset.p0.i64(ptr align 1 %40, i8 %44, i64 %45, i1 false)
  %46 = load i64, ptr %12, align 8, !tbaa !9
  store i64 %46, ptr %9, align 8
  br label %75

47:                                               ; preds = %36
  call void @llvm.lifetime.start.p0(i64 4, ptr %18) #14
  %48 = load i64, ptr %12, align 8, !tbaa !9
  %49 = load i64, ptr %14, align 8, !tbaa !9
  %50 = call noundef i32 @_ZN11duckdb_zstd17HUF_selectDecoderEmm(i64 noundef %48, i64 noundef %49)
  store i32 %50, ptr %18, align 4, !tbaa !11
  %51 = load i32, ptr %18, align 4, !tbaa !11
  %52 = icmp ne i32 %51, 0
  br i1 %52, label %53, label %63

53:                                               ; preds = %47
  %54 = load ptr, ptr %10, align 8, !tbaa !3
  %55 = load ptr, ptr %11, align 8, !tbaa !8
  %56 = load i64, ptr %12, align 8, !tbaa !9
  %57 = load ptr, ptr %13, align 8, !tbaa !8
  %58 = load i64, ptr %14, align 8, !tbaa !9
  %59 = load ptr, ptr %15, align 8, !tbaa !8
  %60 = load i64, ptr %16, align 8, !tbaa !9
  %61 = load i32, ptr %17, align 4, !tbaa !11
  %62 = call noundef i64 @_ZN11duckdb_zstd27HUF_decompress1X2_DCtx_wkspEPjPvmPKvmS1_mi(ptr noundef %54, ptr noundef %55, i64 noundef %56, ptr noundef %57, i64 noundef %58, ptr noundef %59, i64 noundef %60, i32 noundef %61)
  br label %73

63:                                               ; preds = %47
  %64 = load ptr, ptr %10, align 8, !tbaa !3
  %65 = load ptr, ptr %11, align 8, !tbaa !8
  %66 = load i64, ptr %12, align 8, !tbaa !9
  %67 = load ptr, ptr %13, align 8, !tbaa !8
  %68 = load i64, ptr %14, align 8, !tbaa !9
  %69 = load ptr, ptr %15, align 8, !tbaa !8
  %70 = load i64, ptr %16, align 8, !tbaa !9
  %71 = load i32, ptr %17, align 4, !tbaa !11
  %72 = call noundef i64 @_ZN11duckdb_zstd27HUF_decompress1X1_DCtx_wkspEPjPvmPKvmS1_mi(ptr noundef %64, ptr noundef %65, i64 noundef %66, ptr noundef %67, i64 noundef %68, ptr noundef %69, i64 noundef %70, i32 noundef %71)
  br label %73

73:                                               ; preds = %63, %53
  %74 = phi i64 [ %62, %53 ], [ %72, %63 ]
  store i64 %74, ptr %9, align 8
  call void @llvm.lifetime.end.p0(i64 4, ptr %18) #14
  br label %75

75:                                               ; preds = %73, %39, %31, %26, %21
  %76 = load i64, ptr %9, align 8
  ret i64 %76
}