; Function Attrs: mustprogress uwtable
define noundef i64 @_ZN11duckdb_zstd26HUF_decompress1X_DCtx_wkspEPjPvmPKvmS1_mi(ptr noundef %0, ptr noundef %1, i64 noundef %2, ptr noundef %3, i64 noundef %4, ptr noundef %5, i64 noundef %6, i32 noundef %7) local_unnamed_addr #0 {
  %9 = icmp eq i64 %2, 0
  br i1 %9, label %_ZN11duckdb_zstd27HUF_decompress1X2_DCtx_wkspEPjPvmPKvmS1_mi.exit, label %10

10:                                               ; preds = %8
  %11 = icmp ugt i64 %4, %2
  br i1 %11, label %_ZN11duckdb_zstd27HUF_decompress1X2_DCtx_wkspEPjPvmPKvmS1_mi.exit, label %12

12:                                               ; preds = %10
  %13 = icmp eq i64 %4, %2
  br i1 %13, label %14, label %15

14:                                               ; preds = %12
  tail call void @llvm.memcpy.p0.p0.i64(ptr align 1 %1, ptr align 1 %3, i64 %2, i1 false)
  br label %_ZN11duckdb_zstd27HUF_decompress1X2_DCtx_wkspEPjPvmPKvmS1_mi.exit

15:                                               ; preds = %12
  %16 = icmp eq i64 %4, 1
  br i1 %16, label %17, label %19

17:                                               ; preds = %15
  %18 = load i8, ptr %3, align 1, !tbaa !7
  tail call void @llvm.memset.p0.i64(ptr align 1 %1, i8 %18, i64 %2, i1 false)
  br label %_ZN11duckdb_zstd27HUF_decompress1X2_DCtx_wkspEPjPvmPKvmS1_mi.exit

19:                                               ; preds = %15
  %.not.i = icmp ult i64 %4, %2
  br i1 %.not.i, label %20, label %_ZN11duckdb_zstd17HUF_selectDecoderEmm.exit

20:                                               ; preds = %19
  %21 = shl i64 %4, 4
  %22 = udiv i64 %21, %2
  %23 = and i64 %22, 4294967295
  br label %_ZN11duckdb_zstd17HUF_selectDecoderEmm.exit

_ZN11duckdb_zstd17HUF_selectDecoderEmm.exit:      ; preds = %19, %20
  %24 = phi i64 [ %23, %20 ], [ 15, %19 ]
  %25 = lshr i64 %2, 8
  %26 = trunc i64 %25 to i32
  %27 = getelementptr inbounds nuw [16 x [2 x %"struct.duckdb_zstd::algo_time_t"]], ptr @_ZN11duckdb_zstdL8algoTimeE, i64 0, i64 %24
  %28 = load i32, ptr %27, align 16, !tbaa !52
  %29 = getelementptr inbounds nuw i8, ptr %27, i64 4
  %30 = load i32, ptr %29, align 4, !tbaa !54
  %31 = mul i32 %30, %26
  %32 = add i32 %31, %28
  %33 = getelementptr inbounds nuw i8, ptr %27, i64 8
  %34 = load i32, ptr %33, align 8, !tbaa !52
  %35 = getelementptr inbounds nuw i8, ptr %27, i64 12
  %36 = load i32, ptr %35, align 4, !tbaa !54
  %37 = mul i32 %36, %26
  %38 = add i32 %37, %34
  %39 = lshr i32 %38, 5
  %40 = add i32 %39, %38
  %.not = icmp ult i32 %40, %32
  br i1 %.not, label %41, label %49

41:                                               ; preds = %_ZN11duckdb_zstd17HUF_selectDecoderEmm.exit
  %42 = tail call noundef i64 @_ZN11duckdb_zstd21HUF_readDTableX2_wkspEPjPKvmPvmi(ptr noundef %0, ptr noundef %3, i64 noundef %4, ptr noundef %5, i64 noundef %6, i32 noundef %7)
  %43 = icmp ult i64 %42, -119
  br i1 %43, label %44, label %_ZN11duckdb_zstd27HUF_decompress1X2_DCtx_wkspEPjPvmPKvmS1_mi.exit

44:                                               ; preds = %41
  %.not23.i = icmp ult i64 %42, %4
  br i1 %.not23.i, label %45, label %_ZN11duckdb_zstd27HUF_decompress1X2_DCtx_wkspEPjPvmPKvmS1_mi.exit

45:                                               ; preds = %44
  %46 = getelementptr inbounds nuw i8, ptr %3, i64 %42
  %47 = sub nuw i64 %4, %42
  %48 = tail call fastcc noundef i64 @_ZN11duckdb_zstdL38HUF_decompress1X2_usingDTable_internalEPvmPKvmPKji(ptr noundef %1, i64 noundef %2, ptr noundef %46, i64 noundef %47, ptr noundef %0, i32 noundef %7)
  br label %_ZN11duckdb_zstd27HUF_decompress1X2_DCtx_wkspEPjPvmPKvmS1_mi.exit

49:                                               ; preds = %_ZN11duckdb_zstd17HUF_selectDecoderEmm.exit
  %50 = tail call noundef i64 @_ZN11duckdb_zstd21HUF_readDTableX1_wkspEPjPKvmPvmi(ptr noundef %0, ptr noundef %3, i64 noundef %4, ptr noundef %5, i64 noundef %6, i32 noundef %7)
  %51 = icmp ult i64 %50, -119
  br i1 %51, label %52, label %_ZN11duckdb_zstd27HUF_decompress1X2_DCtx_wkspEPjPvmPKvmS1_mi.exit

52:                                               ; preds = %49
  %.not23.i36 = icmp ult i64 %50, %4
  br i1 %.not23.i36, label %53, label %_ZN11duckdb_zstd27HUF_decompress1X2_DCtx_wkspEPjPvmPKvmS1_mi.exit

53:                                               ; preds = %52
  %54 = getelementptr inbounds nuw i8, ptr %3, i64 %50
  %55 = sub nuw i64 %4, %50
  %56 = tail call fastcc noundef i64 @_ZN11duckdb_zstdL38HUF_decompress1X1_usingDTable_internalEPvmPKvmPKji(ptr noundef %1, i64 noundef %2, ptr noundef %54, i64 noundef %55, ptr noundef %0, i32 noundef %7)
  br label %_ZN11duckdb_zstd27HUF_decompress1X2_DCtx_wkspEPjPvmPKvmS1_mi.exit

_ZN11duckdb_zstd27HUF_decompress1X2_DCtx_wkspEPjPvmPKvmS1_mi.exit: ; preds = %53, %52, %49, %45, %44, %41, %10, %8, %17, %14
  %.0 = phi i64 [ %2, %14 ], [ %2, %17 ], [ -70, %8 ], [ -20, %10 ], [ %48, %45 ], [ %42, %41 ], [ -72, %44 ], [ %56, %53 ], [ %50, %49 ], [ -72, %52 ]
  ret i64 %.0
}